target datalayout = "e-m:e-p270:32:32-p271:32:32-p272:64:64-i64:64-i128:128-f80:128-n8:16:32:64-S128"
target triple = "x86_64-pc-linux-gnu"

%struct.H5FD_core_t = type { %struct.H5FD_t, ptr, ptr, i64, i64, i64, i8, i8, i64, i8, i32, i64, i64, i8, %struct.H5FD_file_image_callbacks_t, ptr }
%struct.H5FD_t = type { i64, ptr, i64, i32, i64, i64, i64, i64, i64, i8 }
%struct.H5FD_file_image_callbacks_t = type { ptr, ptr, ptr, ptr, ptr, ptr, ptr }

@H5FD_init_g = external global i8, align 1
@H5_libterm_g = external global i8, align 1

; Function Attrs: nounwind uwtable
define internal i32 @H5FD__core_query(ptr noundef %0, ptr noundef %1) #0 {
  %3 = alloca ptr, align 8
  %4 = alloca ptr, align 8
  %5 = alloca ptr, align 8
  store ptr %0, ptr %3, align 8, !tbaa !29
  store ptr %1, ptr %4, align 8, !tbaa !27
  call void @llvm.lifetime.start.p0(i64 8, ptr %5) #12
  %6 = load ptr, ptr %3, align 8, !tbaa !29
  store ptr %6, ptr %5, align 8, !tbaa !31
  %7 = load i8, ptr @H5FD_init_g, align 1, !tbaa !7, !range !9, !noundef !10
  %8 = trunc i8 %7 to i1
  br i1 %8, label %13, label %9

9:                                                ; preds = %2
  %10 = load i8, ptr @H5_libterm_g, align 1, !tbaa !7, !range !9, !noundef !10
  %11 = trunc i8 %10 to i1
  %12 = xor i1 %11, true
  br label %13

13:                                               ; preds = %9, %2
  %14 = phi i1 [ true, %2 ], [ %12, %9 ]
  %15 = xor i1 %14, true
  %16 = xor i1 %15, true
  %17 = zext i1 %16 to i32
  %18 = sext i32 %17 to i64
  %19 = call i64 @llvm.expect.i64(i64 %18, i64 1)
  %20 = icmp ne i64 %19, 0
  br i1 %20, label %21, label %65

21:                                               ; preds = %13
  %22 = load ptr, ptr %4, align 8, !tbaa !27
  %23 = icmp ne ptr %22, null
  br i1 %23, label %24, label %64

24:                                               ; preds = %21
  %25 = load ptr, ptr %4, align 8, !tbaa !27
  store i64 0, ptr %25, align 8, !tbaa !11
  %26 = load ptr, ptr %4, align 8, !tbaa !27
  %27 = load i64, ptr %26, align 8, !tbaa !11
  %28 = or i64 %27, 1
  store i64 %28, ptr %26, align 8, !tbaa !11
  %29 = load ptr, ptr %4, align 8, !tbaa !27
  %30 = load i64, ptr %29, align 8, !tbaa !11
  %31 = or i64 %30, 6
  store i64 %31, ptr %29, align 8, !tbaa !11
  %32 = load ptr, ptr %4, align 8, !tbaa !27
  %33 = load i64, ptr %32, align 8, !tbaa !11
  %34 = or i64 %33, 8
  store i64 %34, ptr %32, align 8, !tbaa !11
  %35 = load ptr, ptr %4, align 8, !tbaa !27
  %36 = load i64, ptr %35, align 8, !tbaa !11
  %37 = or i64 %36, 16
  store i64 %37, ptr %35, align 8, !tbaa !11
  %38 = load ptr, ptr %4, align 8, !tbaa !27
  %39 = load i64, ptr %38, align 8, !tbaa !11
  %40 = or i64 %39, 1024
  store i64 %40, ptr %38, align 8, !tbaa !11
  %41 = load ptr, ptr %4, align 8, !tbaa !27
  %42 = load i64, ptr %41, align 8, !tbaa !11
  %43 = or i64 %42, 2048
  store i64 %43, ptr %41, align 8, !tbaa !11
  %44 = load ptr, ptr %5, align 8, !tbaa !31
  %45 = icmp ne ptr %44, null
  br i1 %45, label %46, label %63

46:                                               ; preds = %24
  %47 = load ptr, ptr %5, align 8, !tbaa !31
  %48 = getelementptr inbounds nuw %struct.H5FD_core_t, ptr %47, i32 0, i32 10
  %49 = load i32, ptr %48, align 4, !tbaa !40
  %50 = icmp sge i32 %49, 0
  br i1 %50, label %51, label %63

51:                                               ; preds = %46
  %52 = load ptr, ptr %5, align 8, !tbaa !31
  %53 = getelementptr inbounds nuw %struct.H5FD_core_t, ptr %52, i32 0, i32 6
  %54 = load i8, ptr %53, align 8, !tbaa !47, !range !9, !noundef !10
  %55 = trunc i8 %54 to i1
  br i1 %55, label %56, label %63

56:                                               ; preds = %51
  %57 = load ptr, ptr %4, align 8, !tbaa !27
  %58 = load i64, ptr %57, align 8, !tbaa !11
  %59 = or i64 %58, 128
  store i64 %59, ptr %57, align 8, !tbaa !11
  %60 = load ptr, ptr %4, align 8, !tbaa !27
  %61 = load i64, ptr %60, align 8, !tbaa !11
  %62 = or i64 %61, 32768
  store i64 %62, ptr %60, align 8, !tbaa !11
  br label %63

63:                                               ; preds = %56, %51, %46, %24
  br label %64

64:                                               ; preds = %63, %21
  br label %65

65:                                               ; preds = %64, %13
  call void @llvm.lifetime.end.p0(i64 8, ptr %5) #12
  ret i32 0
}