; Function Attrs: mustprogress nofree norecurse nosync nounwind willreturn memory(read, argmem: readwrite, inaccessiblemem: none) uwtable
define internal noundef i32 @H5FD__core_query(ptr noundef readonly captures(address_is_null) %0, ptr noundef writeonly captures(address_is_null) %1) #6 {
  %3 = load i8, ptr @H5FD_init_g, align 1, !tbaa !3, !range !7, !noundef !8
  %4 = trunc nuw i8 %3 to i1
  %5 = load i8, ptr @H5_libterm_g, align 1, !range !7
  %6 = trunc nuw i8 %5 to i1
  %7 = xor i1 %6, true
  %8 = select i1 %4, i1 true, i1 %7
  %9 = icmp ne ptr %1, null
  %or.cond = and i1 %9, %8
  br i1 %or.cond, label %10, label %20, !prof !59

10:                                               ; preds = %2
  store i64 3103, ptr %1, align 8, !tbaa !10
  %.not = icmp eq ptr %0, null
  br i1 %.not, label %20, label %11

11:                                               ; preds = %10
  %12 = getelementptr inbounds nuw i8, ptr %0, i64 140
  %13 = load i32, ptr %12, align 4, !tbaa !30
  %14 = icmp sgt i32 %13, -1
  br i1 %14, label %15, label %20

15:                                               ; preds = %11
  %16 = getelementptr inbounds nuw i8, ptr %0, i64 120
  %17 = load i8, ptr %16, align 8, !tbaa !38, !range !7, !noundef !8
  %18 = trunc nuw i8 %17 to i1
  br i1 %18, label %19, label %20

19:                                               ; preds = %15
  store i64 35999, ptr %1, align 8, !tbaa !10
  br label %20

20:                                               ; preds = %19, %15, %11, %10, %2
  ret i32 0
}